target datalayout = "e-m:e-p270:32:32-p271:32:32-p272:64:64-i64:64-i128:128-f80:128-n8:16:32:64-S128"
target triple = "x86_64-pc-linux-gnu"

%"class.pxrInternal_v0_24__pxrReserved__::TfType" = type { ptr }
%"class.std::__shared_count" = type { ptr }
%"class.pxrInternal_v0_24__pxrReserved__::JsValue" = type { %"class.std::shared_ptr.94" }
%"class.std::shared_ptr.94" = type { %"class.std::__shared_ptr.95" }
%"class.std::__shared_ptr.95" = type { ptr, %"class.std::__shared_count" }

; Function Attrs: mustprogress uwtable
define internal noundef zeroext i1 @_ZN32pxrInternal_v0_24__pxrReserved__L28_FormatCapabilityIsSupportedERNS_12PlugRegistryENS_6TfTypeERKNSt7__cxx1112basic_stringIcSt11char_traitsIcESaIcEEE(ptr noundef nonnull align 8 dereferenceable(104) %0, ptr %1, ptr noundef nonnull align 8 dereferenceable(32) %2) #0 personality ptr @__gxx_personality_v0 {
  %4 = alloca i1, align 1
  %5 = alloca %"class.pxrInternal_v0_24__pxrReserved__::TfType", align 8
  %6 = alloca ptr, align 8
  %7 = alloca ptr, align 8
  %8 = alloca %"class.pxrInternal_v0_24__pxrReserved__::JsValue", align 8
  %9 = alloca %"class.pxrInternal_v0_24__pxrReserved__::TfType", align 8
  %10 = alloca ptr, align 8
  %11 = alloca i32, align 4
  %12 = alloca i32, align 4
  %13 = getelementptr inbounds nuw %"class.pxrInternal_v0_24__pxrReserved__::TfType", ptr %5, i32 0, i32 0
  store ptr %1, ptr %13, align 8
  store ptr %0, ptr %6, align 8
  store ptr %2, ptr %7, align 8
  %14 = load ptr, ptr %6, align 8
  call void @llvm.memcpy.p0.p0.i64(ptr align 8 %9, ptr align 8 %5, i64 8, i1 false)
  %15 = load ptr, ptr %7, align 8
  %16 = getelementptr inbounds nuw %"class.pxrInternal_v0_24__pxrReserved__::TfType", ptr %9, i32 0, i32 0
  %17 = load ptr, ptr %16, align 8
  call void @_ZNK32pxrInternal_v0_24__pxrReserved__12PlugRegistry25GetDataFromPluginMetaDataENS_6TfTypeERKNSt7__cxx1112basic_stringIcSt11char_traitsIcESaIcEEE(ptr dead_on_unwind writable sret(%"class.pxrInternal_v0_24__pxrReserved__::JsValue") align 8 %8, ptr noundef nonnull align 8 dereferenceable(104) %14, ptr %17, ptr noundef nonnull align 8 dereferenceable(32) %15)
  %18 = invoke noundef zeroext i1 @_ZNK32pxrInternal_v0_24__pxrReserved__7JsValue6IsBoolEv(ptr noundef nonnull align 8 dereferenceable(16) %8)
          to label %19 unwind label %24

19:                                               ; preds = %3
  br i1 %18, label %20, label %28

20:                                               ; preds = %19
  %21 = invoke noundef zeroext i1 @_ZNK32pxrInternal_v0_24__pxrReserved__7JsValue7GetBoolEv(ptr noundef nonnull align 8 dereferenceable(16) %8)
          to label %22 unwind label %24

22:                                               ; preds = %20
  br i1 %21, label %28, label %23

23:                                               ; preds = %22
  store i1 false, ptr %4, align 1
  store i32 1, ptr %12, align 4
  br label %29

24:                                               ; preds = %20, %3
  %25 = landingpad { ptr, i32 }
          cleanup
  %26 = extractvalue { ptr, i32 } %25, 0
  store ptr %26, ptr %10, align 8
  %27 = extractvalue { ptr, i32 } %25, 1
  store i32 %27, ptr %11, align 4
  call void @_ZN32pxrInternal_v0_24__pxrReserved__7JsValueD2Ev(ptr noundef nonnull align 8 dereferenceable(16) %8) #13
  br label %31

28:                                               ; preds = %22, %19
  store i1 true, ptr %4, align 1
  store i32 1, ptr %12, align 4
  br label %29

29:                                               ; preds = %28, %23
  call void @_ZN32pxrInternal_v0_24__pxrReserved__7JsValueD2Ev(ptr noundef nonnull align 8 dereferenceable(16) %8) #13
  %30 = load i1, ptr %4, align 1
  ret i1 %30

31:                                               ; preds = %24
  %32 = load ptr, ptr %10, align 8
  %33 = load i32, ptr %11, align 4
  %34 = insertvalue { ptr, i32 } poison, ptr %32, 0
  %35 = insertvalue { ptr, i32 } %34, i32 %33, 1
  resume { ptr, i32 } %35
}